; Function Attrs: mustprogress uwtable
define internal fastcc void @"_ZSt8for_eachIN9__gnu_cxx17__normal_iteratorIPNSt7__cxx1112basic_stringIcSt11char_traitsIcESaIcEEESt6vectorIS7_SaIS7_EEEEZ26cmSeparateArgumentsCommandRKSB_R17cmExecutionStatusE3$_0ET0_T_SJ_SI_"(ptr %0, ptr readnone %1) unnamed_addr #3 {
  %.not4 = icmp eq ptr %0, %1
  br i1 %.not4, label %._crit_edge, label %.lr.ph

.lr.ph:                                           ; preds = %2, %"_ZZ26cmSeparateArgumentsCommandRKSt6vectorINSt7__cxx1112basic_stringIcSt11char_traitsIcESaIcEEESaIS5_EER17cmExecutionStatusENK3$_0clERS5_.exit"
  %.sroa.01.05 = phi ptr [ %8, %"_ZZ26cmSeparateArgumentsCommandRKSt6vectorINSt7__cxx1112basic_stringIcSt11char_traitsIcESaIcEEESaIS5_EER17cmExecutionStatusENK3$_0clERS5_.exit" ], [ %0, %2 ]
  %3 = tail call noundef i64 @_ZNKSt7__cxx1112basic_stringIcSt11char_traitsIcESaIcEE13find_first_ofEcm(ptr noundef nonnull align 8 dereferenceable(32) %.sroa.01.05, i8 noundef signext 59, i64 noundef 0) #15
  %.not1.i = icmp eq i64 %3, -1
  br i1 %.not1.i, label %"_ZZ26cmSeparateArgumentsCommandRKSt6vectorINSt7__cxx1112basic_stringIcSt11char_traitsIcESaIcEEESaIS5_EER17cmExecutionStatusENK3$_0clERS5_.exit", label %.lr.ph.i

.lr.ph.i:                                         ; preds = %.lr.ph, %.lr.ph.i
  %4 = phi i64 [ %7, %.lr.ph.i ], [ %3, %.lr.ph ]
  %5 = tail call noundef nonnull align 8 dereferenceable(32) ptr @_ZNSt7__cxx1112basic_stringIcSt11char_traitsIcESaIcEE6insertEmmc(ptr noundef nonnull align 8 dereferenceable(32) %.sroa.01.05, i64 noundef %4, i64 noundef 1, i8 noundef signext 92)
  %6 = add i64 %4, 2
  %7 = tail call noundef i64 @_ZNKSt7__cxx1112basic_stringIcSt11char_traitsIcESaIcEE13find_first_ofEcm(ptr noundef nonnull align 8 dereferenceable(32) %.sroa.01.05, i8 noundef signext 59, i64 noundef %6) #15
  %.not.i = icmp eq i64 %7, -1
  br i1 %.not.i, label %"_ZZ26cmSeparateArgumentsCommandRKSt6vectorINSt7__cxx1112basic_stringIcSt11char_traitsIcESaIcEEESaIS5_EER17cmExecutionStatusENK3$_0clERS5_.exit", label %.lr.ph.i, !llvm.loop !15

"_ZZ26cmSeparateArgumentsCommandRKSt6vectorINSt7__cxx1112basic_stringIcSt11char_traitsIcESaIcEEESaIS5_EER17cmExecutionStatusENK3$_0clERS5_.exit": ; preds = %.lr.ph.i, %.lr.ph
  %8 = getelementptr inbounds nuw i8, ptr %.sroa.01.05, i64 32
  %.not = icmp eq ptr %8, %1
  br i1 %.not, label %._crit_edge, label %.lr.ph, !llvm.loop !16

._crit_edge:                                      ; preds = %"_ZZ26cmSeparateArgumentsCommandRKSt6vectorINSt7__cxx1112basic_stringIcSt11char_traitsIcESaIcEEESaIS5_EER17cmExecutionStatusENK3$_0clERS5_.exit", %2
  ret void
}